; Function Attrs: nofree norecurse nosync nounwind memory(argmem: readwrite) uwtable
define internal void @blend_vline(ptr noundef captures(none) %0, i32 noundef %1, i32 noundef %2, float noundef %3, float noundef %4, i32 noundef %5, i32 noundef %6) #8 {
  %8 = icmp sgt i32 %1, 0
  br i1 %8, label %.lr.ph, label %._crit_edge

.lr.ph:                                           ; preds = %7
  %9 = sitofp i32 %5 to float
  %10 = mul nsw i32 %6, %2
  %11 = sext i32 %10 to i64
  br label %12

12:                                               ; preds = %.lr.ph, %12
  %.013 = phi i32 [ 0, %.lr.ph ], [ %19, %12 ]
  %.01112 = phi ptr [ %0, %.lr.ph ], [ %18, %12 ]
  %13 = load i8, ptr %.01112, align 1, !tbaa !62
  %14 = uitofp i8 %13 to float
  %15 = fmul nsz float %4, %14
  %16 = tail call nsz float @llvm.fmuladd.f32(float %9, float %3, float %15)
  %17 = fptoui float %16 to i8
  store i8 %17, ptr %.01112, align 1, !tbaa !62
  %18 = getelementptr inbounds i8, ptr %.01112, i64 %11
  %19 = add nsw i32 %.013, %6
  %20 = icmp slt i32 %19, %1
  br i1 %20, label %12, label %._crit_edge, !llvm.loop !239

._crit_edge:                                      ; preds = %12, %7
  ret void
}